target datalayout = "e-m:e-p270:32:32-p271:32:32-p272:64:64-i64:64-i128:128-f80:128-n8:16:32:64-S128"
target triple = "x86_64-pc-linux-gnu"

%struct._value_string_ext = type { ptr, i32, i32, ptr, ptr }
%struct.nstime_t = type { i64, i32 }
%struct._packet_info = type { ptr, ptr, i32, i32, %struct.nstime_t, %struct.nstime_t, %struct.nstime_t, i8, ptr, ptr, ptr, ptr, %struct._address, %struct._address, %struct._address, %struct._address, %struct._address, %struct._address, i32, ptr, i8, [3 x i8], %struct.anon, i32, i32, i32, i32, ptr, i8, ptr, ptr, i16, i16, i32, i32, i16, i32, i32, ptr, ptr, ptr, i8, i8, i16, i16, i16, i32, i16, i16, ptr, ptr, ptr, ptr, ptr, i32, i32 }
%struct._address = type { i32, i32, ptr, ptr }
%struct.anon = type { i8, [3 x i8] }

@gbcs_message_code_names_ext = internal global %struct._value_string_ext { ptr @_try_val_to_str_ext_init, i32 0, i32 221, ptr @gbcs_message_code_names, ptr @.str.334 }, align 8
@hf_gbcs_message_element_length = internal global i32 0, align 4
@hf_gbcs_message_grouping_header_general_signing = internal global i32 0, align 4
@hf_gbcs_message_grouping_header_cra_flag = internal global i32 0, align 4
@hf_gbcs_message_grouping_header_originator_counter = internal global i32 0, align 4
@hf_gbcs_message_grouping_header_business_originator_id = internal global i32 0, align 4
@hf_gbcs_message_grouping_header_business_target_id = internal global i32 0, align 4
@hf_gbcs_message_grouping_header_date_time = internal global i32 0, align 4
@hf_gbcs_message_grouping_header_message_code = internal global i32 0, align 4
@hf_gbcs_message_grouping_header_supplementary_remote_party_id = internal global i32 0, align 4
@hf_gbcs_message_grouping_header_supplementary_remote_party_counter = internal global i32 0, align 4
@hf_gbcs_message_grouping_header_supplementary_originator_counter = internal global i32 0, align 4
@hf_gbcs_message_grouping_header_supplementary_remote_party_ka_certificate = internal global i32 0, align 4
@ett_gbcs_message_grouping_header = internal global i32 0, align 4
@ett_gbcs_message_grouping_header_other_info = internal global i32 0, align 4
@.str.580 = private unnamed_addr constant [16 x i8] c"Grouping Header\00", align 1
@.str.581 = private unnamed_addr constant [12 x i8] c"Unknown CRA\00", align 1
@.str.582 = private unnamed_addr constant [18 x i8] c"Other Information\00", align 1
@.str.583 = private unnamed_addr constant [17 x i8] c"Unknown Use Case\00", align 1

; Function Attrs: null_pointer_is_valid sspstrong uwtable
define internal void @dissect_gbcs_message_grouping_header(ptr noundef %0, ptr noundef %1, ptr noundef %2, ptr noundef %3, ptr noundef %4, ptr noundef %5) #0 {
  %7 = alloca ptr, align 8
  %8 = alloca ptr, align 8
  %9 = alloca ptr, align 8
  %10 = alloca ptr, align 8
  %11 = alloca ptr, align 8
  %12 = alloca ptr, align 8
  %13 = alloca ptr, align 8
  %14 = alloca ptr, align 8
  %15 = alloca ptr, align 8
  %16 = alloca ptr, align 8
  %17 = alloca i32, align 4
  %18 = alloca i32, align 4
  %19 = alloca i32, align 4
  store ptr %0, ptr %7, align 8
  store ptr %1, ptr %8, align 8
  store ptr %2, ptr %9, align 8
  store ptr %3, ptr %10, align 8
  store ptr %4, ptr %11, align 8
  store ptr %5, ptr %12, align 8
  call void @llvm.lifetime.start.p0(i64 8, ptr %13) #5
  call void @llvm.lifetime.start.p0(i64 8, ptr %14) #5
  call void @llvm.lifetime.start.p0(i64 8, ptr %15) #5
  call void @llvm.lifetime.start.p0(i64 8, ptr %16) #5
  call void @llvm.lifetime.start.p0(i64 4, ptr %17) #5
  call void @llvm.lifetime.start.p0(i64 4, ptr %18) #5
  call void @llvm.lifetime.start.p0(i64 4, ptr %19) #5
  %20 = load ptr, ptr %9, align 8
  %21 = load ptr, ptr %7, align 8
  %22 = load ptr, ptr %10, align 8
  %23 = load i32, ptr %22, align 4
  %24 = load i32, ptr @ett_gbcs_message_grouping_header, align 4
  %25 = call ptr @proto_tree_add_subtree(ptr noundef %20, ptr noundef %21, i32 noundef %23, i32 noundef 1, i32 noundef %24, ptr noundef %13, ptr noundef @.str.580)
  store ptr %25, ptr %15, align 8
  %26 = load ptr, ptr %15, align 8
  %27 = load i32, ptr @hf_gbcs_message_grouping_header_general_signing, align 4
  %28 = load ptr, ptr %7, align 8
  %29 = load ptr, ptr %10, align 8
  %30 = load i32, ptr %29, align 4
  %31 = call ptr @proto_tree_add_item(ptr noundef %26, i32 noundef %27, ptr noundef %28, i32 noundef %30, i32 noundef 1, i32 noundef 0)
  %32 = load ptr, ptr %10, align 8
  %33 = load i32, ptr %32, align 4
  %34 = add i32 %33, 1
  store i32 %34, ptr %32, align 4
  %35 = load ptr, ptr %7, align 8
  %36 = load ptr, ptr %10, align 8
  %37 = load i32, ptr %36, align 4
  %38 = add i32 %37, 1
  %39 = call zeroext i8 @tvb_get_uint8(ptr noundef %35, i32 noundef %38)
  %40 = load ptr, ptr %12, align 8
  store i8 %39, ptr %40, align 1
  %41 = load ptr, ptr %8, align 8
  %42 = getelementptr inbounds nuw %struct._packet_info, ptr %41, i32 0, i32 1
  %43 = load ptr, ptr %42, align 8
  %44 = load ptr, ptr %12, align 8
  %45 = load i8, ptr %44, align 1
  %46 = zext i8 %45 to i32
  %47 = call ptr @val_to_str_const(i32 noundef %46, ptr noundef @gbcs_message_cra_names, ptr noundef @.str.581)
  call void @col_append_sep_str(ptr noundef %43, i32 noundef 25, ptr noundef null, ptr noundef %47)
  %48 = load ptr, ptr %15, align 8
  %49 = load i32, ptr @hf_gbcs_message_grouping_header_cra_flag, align 4
  %50 = load i32, ptr @hf_gbcs_message_grouping_header_originator_counter, align 4
  %51 = load ptr, ptr %7, align 8
  %52 = load ptr, ptr %10, align 8
  call void @dissect_gbcs_message_element_transaction_id(ptr noundef %48, i32 noundef %49, i32 noundef %50, ptr noundef %51, ptr noundef %52)
  %53 = load ptr, ptr %15, align 8
  %54 = load i32, ptr @hf_gbcs_message_grouping_header_business_originator_id, align 4
  %55 = load ptr, ptr %7, align 8
  %56 = load ptr, ptr %10, align 8
  call void @dissect_gbcs_message_element(ptr noundef %53, i32 noundef %54, ptr noundef %55, ptr noundef %56)
  %57 = load ptr, ptr %15, align 8
  %58 = load i32, ptr @hf_gbcs_message_grouping_header_business_target_id, align 4
  %59 = load ptr, ptr %7, align 8
  %60 = load ptr, ptr %10, align 8
  call void @dissect_gbcs_message_element(ptr noundef %57, i32 noundef %58, ptr noundef %59, ptr noundef %60)
  %61 = load ptr, ptr %15, align 8
  %62 = load i32, ptr @hf_gbcs_message_grouping_header_date_time, align 4
  %63 = load ptr, ptr %7, align 8
  %64 = load ptr, ptr %10, align 8
  call void @dissect_gbcs_message_element_date_time(ptr noundef %61, i32 noundef %62, ptr noundef %63, ptr noundef %64)
  %65 = load ptr, ptr %15, align 8
  %66 = load ptr, ptr %7, align 8
  %67 = load ptr, ptr %10, align 8
  %68 = load i32, ptr %67, align 4
  %69 = load i32, ptr @ett_gbcs_message_grouping_header_other_info, align 4
  %70 = call ptr @proto_tree_add_subtree(ptr noundef %65, ptr noundef %66, i32 noundef %68, i32 noundef 1, i32 noundef %69, ptr noundef %14, ptr noundef @.str.582)
  store ptr %70, ptr %16, align 8
  %71 = load ptr, ptr %10, align 8
  %72 = load i32, ptr %71, align 4
  store i32 %72, ptr %18, align 4
  %73 = load ptr, ptr %7, align 8
  %74 = load ptr, ptr %10, align 8
  %75 = load i32, ptr %74, align 4
  %76 = call i32 @get_ber_length(ptr noundef %73, i32 noundef %75, ptr noundef %17, ptr noundef null)
  %77 = load ptr, ptr %10, align 8
  store i32 %76, ptr %77, align 4
  %78 = load ptr, ptr %16, align 8
  %79 = load i32, ptr @hf_gbcs_message_element_length, align 4
  %80 = load ptr, ptr %7, align 8
  %81 = load i32, ptr %18, align 4
  %82 = load ptr, ptr %10, align 8
  %83 = load i32, ptr %82, align 4
  %84 = load i32, ptr %18, align 4
  %85 = sub i32 %83, %84
  %86 = load i32, ptr %17, align 4
  %87 = call ptr @proto_tree_add_uint(ptr noundef %78, i32 noundef %79, ptr noundef %80, i32 noundef %81, i32 noundef %85, i32 noundef %86)
  %88 = load ptr, ptr %16, align 8
  %89 = load i32, ptr @hf_gbcs_message_grouping_header_message_code, align 4
  %90 = load ptr, ptr %7, align 8
  %91 = load ptr, ptr %10, align 8
  %92 = load i32, ptr %91, align 4
  %93 = call ptr @proto_tree_add_item_ret_uint(ptr noundef %88, i32 noundef %89, ptr noundef %90, i32 noundef %92, i32 noundef 2, i32 noundef 0, ptr noundef %19)
  %94 = load ptr, ptr %8, align 8
  %95 = getelementptr inbounds nuw %struct._packet_info, ptr %94, i32 0, i32 1
  %96 = load ptr, ptr %95, align 8
  %97 = load i32, ptr %19, align 4
  %98 = call ptr @val_to_str_ext_const(i32 noundef %97, ptr noundef @gbcs_message_code_names_ext, ptr noundef @.str.583)
  call void @col_append_sep_str(ptr noundef %96, i32 noundef 25, ptr noundef null, ptr noundef %98)
  %99 = load ptr, ptr %10, align 8
  %100 = load i32, ptr %99, align 4
  %101 = add i32 %100, 2
  store i32 %101, ptr %99, align 4
  %102 = load i32, ptr %17, align 4
  %103 = sub i32 %102, 2
  store i32 %103, ptr %17, align 4
  %104 = load i32, ptr %17, align 4
  %105 = icmp ugt i32 %104, 0
  br i1 %105, label %106, label %118

106:                                              ; preds = %6
  %107 = load ptr, ptr %16, align 8
  %108 = load i32, ptr @hf_gbcs_message_grouping_header_supplementary_remote_party_id, align 4
  %109 = load ptr, ptr %7, align 8
  %110 = load ptr, ptr %10, align 8
  %111 = load i32, ptr %110, align 4
  %112 = call ptr @proto_tree_add_item(ptr noundef %107, i32 noundef %108, ptr noundef %109, i32 noundef %111, i32 noundef 8, i32 noundef 0)
  %113 = load ptr, ptr %10, align 8
  %114 = load i32, ptr %113, align 4
  %115 = add i32 %114, 8
  store i32 %115, ptr %113, align 4
  %116 = load i32, ptr %17, align 4
  %117 = sub i32 %116, 8
  store i32 %117, ptr %17, align 4
  br label %118

118:                                              ; preds = %106, %6
  %119 = load i32, ptr %17, align 4
  %120 = icmp ugt i32 %119, 0
  br i1 %120, label %121, label %133

121:                                              ; preds = %118
  %122 = load ptr, ptr %16, align 8
  %123 = load i32, ptr @hf_gbcs_message_grouping_header_supplementary_remote_party_counter, align 4
  %124 = load ptr, ptr %7, align 8
  %125 = load ptr, ptr %10, align 8
  %126 = load i32, ptr %125, align 4
  %127 = call ptr @proto_tree_add_item(ptr noundef %122, i32 noundef %123, ptr noundef %124, i32 noundef %126, i32 noundef 8, i32 noundef 0)
  %128 = load ptr, ptr %10, align 8
  %129 = load i32, ptr %128, align 4
  %130 = add i32 %129, 8
  store i32 %130, ptr %128, align 4
  %131 = load i32, ptr %17, align 4
  %132 = sub i32 %131, 8
  store i32 %132, ptr %17, align 4
  br label %133

133:                                              ; preds = %121, %118
  %134 = load i32, ptr %17, align 4
  %135 = icmp ugt i32 %134, 0
  br i1 %135, label %136, label %148

136:                                              ; preds = %133
  %137 = load ptr, ptr %16, align 8
  %138 = load i32, ptr @hf_gbcs_message_grouping_header_supplementary_originator_counter, align 4
  %139 = load ptr, ptr %7, align 8
  %140 = load ptr, ptr %10, align 8
  %141 = load i32, ptr %140, align 4
  %142 = call ptr @proto_tree_add_item(ptr noundef %137, i32 noundef %138, ptr noundef %139, i32 noundef %141, i32 noundef 8, i32 noundef 0)
  %143 = load ptr, ptr %10, align 8
  %144 = load i32, ptr %143, align 4
  %145 = add i32 %144, 8
  store i32 %145, ptr %143, align 4
  %146 = load i32, ptr %17, align 4
  %147 = sub i32 %146, 8
  store i32 %147, ptr %17, align 4
  br label %148

148:                                              ; preds = %136, %133
  %149 = load i32, ptr %17, align 4
  %150 = icmp ugt i32 %149, 0
  br i1 %150, label %151, label %166

151:                                              ; preds = %148
  %152 = load ptr, ptr %16, align 8
  %153 = load i32, ptr @hf_gbcs_message_grouping_header_supplementary_remote_party_ka_certificate, align 4
  %154 = load ptr, ptr %7, align 8
  %155 = load ptr, ptr %10, align 8
  %156 = load i32, ptr %155, align 4
  %157 = load i32, ptr %17, align 4
  %158 = call ptr @proto_tree_add_item(ptr noundef %152, i32 noundef %153, ptr noundef %154, i32 noundef %156, i32 noundef %157, i32 noundef 0)
  %159 = load i32, ptr %17, align 4
  %160 = load ptr, ptr %10, align 8
  %161 = load i32, ptr %160, align 4
  %162 = add i32 %161, %159
  store i32 %162, ptr %160, align 4
  %163 = load i32, ptr %17, align 4
  %164 = load i32, ptr %17, align 4
  %165 = sub i32 %164, %163
  store i32 %165, ptr %17, align 4
  br label %166

166:                                              ; preds = %151, %148
  %167 = load ptr, ptr %14, align 8
  %168 = load ptr, ptr %7, align 8
  %169 = load ptr, ptr %10, align 8
  %170 = load i32, ptr %169, align 4
  call void @proto_item_set_end(ptr noundef %167, ptr noundef %168, i32 noundef %170)
  %171 = load ptr, ptr %10, align 8
  %172 = load i32, ptr %171, align 4
  store i32 %172, ptr %18, align 4
  %173 = load ptr, ptr %7, align 8
  %174 = load ptr, ptr %10, align 8
  %175 = load i32, ptr %174, align 4
  %176 = load ptr, ptr %11, align 8
  %177 = call i32 @get_ber_length(ptr noundef %173, i32 noundef %175, ptr noundef %176, ptr noundef null)
  %178 = load ptr, ptr %10, align 8
  store i32 %177, ptr %178, align 4
  %179 = load ptr, ptr %15, align 8
  %180 = load i32, ptr @hf_gbcs_message_element_length, align 4
  %181 = load ptr, ptr %7, align 8
  %182 = load i32, ptr %18, align 4
  %183 = load ptr, ptr %10, align 8
  %184 = load i32, ptr %183, align 4
  %185 = load i32, ptr %18, align 4
  %186 = sub i32 %184, %185
  %187 = load ptr, ptr %11, align 8
  %188 = load i32, ptr %187, align 4
  %189 = call ptr @proto_tree_add_uint(ptr noundef %179, i32 noundef %180, ptr noundef %181, i32 noundef %182, i32 noundef %186, i32 noundef %188)
  %190 = load ptr, ptr %13, align 8
  %191 = load ptr, ptr %7, align 8
  %192 = load ptr, ptr %10, align 8
  %193 = load i32, ptr %192, align 4
  call void @proto_item_set_end(ptr noundef %190, ptr noundef %191, i32 noundef %193)
  call void @llvm.lifetime.end.p0(i64 4, ptr %19) #5
  call void @llvm.lifetime.end.p0(i64 4, ptr %18) #5
  call void @llvm.lifetime.end.p0(i64 4, ptr %17) #5
  call void @llvm.lifetime.end.p0(i64 8, ptr %16) #5
  call void @llvm.lifetime.end.p0(i64 8, ptr %15) #5
  call void @llvm.lifetime.end.p0(i64 8, ptr %14) #5
  call void @llvm.lifetime.end.p0(i64 8, ptr %13) #5
  ret void
}