; Function Attrs: null_pointer_is_valid sspstrong uwtable
define internal fastcc void @dissect_gbcs_message_grouping_header(ptr noundef %0, ptr noundef readonly captures(none) %1, ptr noundef %2, ptr noundef captures(none) %3, ptr noundef %4, ptr noundef writeonly captures(none) initializes((0, 1)) %5) unnamed_addr #0 {
  %7 = alloca ptr, align 8
  %8 = alloca ptr, align 8
  %9 = alloca i32, align 4
  %10 = alloca i32, align 4
  call void @llvm.lifetime.start.p0(i64 8, ptr nonnull %7) #6
  call void @llvm.lifetime.start.p0(i64 8, ptr nonnull %8) #6
  call void @llvm.lifetime.start.p0(i64 4, ptr nonnull %9) #6
  call void @llvm.lifetime.start.p0(i64 4, ptr nonnull %10) #6
  %11 = load i32, ptr %3, align 4
  %12 = load i32, ptr @ett_gbcs_message_grouping_header, align 4
  %13 = call ptr @proto_tree_add_subtree(ptr noundef %2, ptr noundef %0, i32 noundef %11, i32 noundef 1, i32 noundef %12, ptr noundef nonnull %7, ptr noundef nonnull @.str.580)
  %14 = load i32, ptr @hf_gbcs_message_grouping_header_general_signing, align 4
  %15 = load i32, ptr %3, align 4
  %16 = call ptr @proto_tree_add_item(ptr noundef %13, i32 noundef %14, ptr noundef %0, i32 noundef %15, i32 noundef 1, i32 noundef 0)
  %17 = load i32, ptr %3, align 4
  %18 = add i32 %17, 1
  store i32 %18, ptr %3, align 4
  %19 = add i32 %17, 2
  %20 = call zeroext i8 @tvb_get_uint8(ptr noundef %0, i32 noundef %19)
  store i8 %20, ptr %5, align 1
  %21 = getelementptr inbounds nuw i8, ptr %1, i64 8
  %22 = load ptr, ptr %21, align 8
  %23 = zext i8 %20 to i32
  %24 = call ptr @val_to_str_const(i32 noundef %23, ptr noundef nonnull @gbcs_message_cra_names, ptr noundef nonnull @.str.581)
  call void @col_append_sep_str(ptr noundef %22, i32 noundef 25, ptr noundef null, ptr noundef %24)
  %25 = load i32, ptr @hf_gbcs_message_grouping_header_cra_flag, align 4
  %26 = load i32, ptr @hf_gbcs_message_grouping_header_originator_counter, align 4
  call fastcc void @dissect_gbcs_message_element_transaction_id(ptr noundef %13, i32 noundef %25, i32 noundef %26, ptr noundef %0, ptr noundef %3)
  %27 = load i32, ptr @hf_gbcs_message_grouping_header_business_originator_id, align 4
  call fastcc void @dissect_gbcs_message_element(ptr noundef %13, i32 noundef %27, ptr noundef %0, ptr noundef %3)
  %28 = load i32, ptr @hf_gbcs_message_grouping_header_business_target_id, align 4
  call fastcc void @dissect_gbcs_message_element(ptr noundef %13, i32 noundef %28, ptr noundef %0, ptr noundef %3)
  %29 = load i32, ptr @hf_gbcs_message_grouping_header_date_time, align 4
  call fastcc void @dissect_gbcs_message_element_date_time(ptr noundef %13, i32 noundef %29, ptr noundef %0, ptr noundef %3)
  %30 = load i32, ptr %3, align 4
  %31 = load i32, ptr @ett_gbcs_message_grouping_header_other_info, align 4
  %32 = call ptr @proto_tree_add_subtree(ptr noundef %13, ptr noundef %0, i32 noundef %30, i32 noundef 1, i32 noundef %31, ptr noundef nonnull %8, ptr noundef nonnull @.str.582)
  %33 = load i32, ptr %3, align 4
  %34 = call i32 @get_ber_length(ptr noundef %0, i32 noundef %33, ptr noundef nonnull %9, ptr noundef null)
  store i32 %34, ptr %3, align 4
  %35 = load i32, ptr @hf_gbcs_message_element_length, align 4
  %36 = sub i32 %34, %33
  %37 = load i32, ptr %9, align 4
  %38 = call ptr @proto_tree_add_uint(ptr noundef %32, i32 noundef %35, ptr noundef %0, i32 noundef %33, i32 noundef %36, i32 noundef %37)
  %39 = load i32, ptr @hf_gbcs_message_grouping_header_message_code, align 4
  %40 = load i32, ptr %3, align 4
  %41 = call ptr @proto_tree_add_item_ret_uint(ptr noundef %32, i32 noundef %39, ptr noundef %0, i32 noundef %40, i32 noundef 2, i32 noundef 0, ptr noundef nonnull %10)
  %42 = load ptr, ptr %21, align 8
  %43 = load i32, ptr %10, align 4
  %44 = call ptr @val_to_str_ext_const(i32 noundef %43, ptr noundef nonnull @gbcs_message_code_names_ext, ptr noundef nonnull @.str.583)
  call void @col_append_sep_str(ptr noundef %42, i32 noundef 25, ptr noundef null, ptr noundef %44)
  %45 = load i32, ptr %3, align 4
  %46 = add i32 %45, 2
  store i32 %46, ptr %3, align 4
  %47 = load i32, ptr %9, align 4
  %48 = add i32 %47, -2
  store i32 %48, ptr %9, align 4
  %.not = icmp eq i32 %48, 0
  br i1 %.not, label %.thread77, label %49

49:                                               ; preds = %6
  %50 = load i32, ptr @hf_gbcs_message_grouping_header_supplementary_remote_party_id, align 4
  %51 = call ptr @proto_tree_add_item(ptr noundef %32, i32 noundef %50, ptr noundef %0, i32 noundef %46, i32 noundef 8, i32 noundef 0)
  %52 = load i32, ptr %3, align 4
  %53 = add i32 %52, 8
  store i32 %53, ptr %3, align 4
  %54 = load i32, ptr %9, align 4
  %55 = add i32 %54, -8
  store i32 %55, ptr %9, align 4
  %.not71 = icmp eq i32 %55, 0
  br i1 %.not71, label %.thread77, label %56

56:                                               ; preds = %49
  %57 = load i32, ptr @hf_gbcs_message_grouping_header_supplementary_remote_party_counter, align 4
  %58 = call ptr @proto_tree_add_item(ptr noundef %32, i32 noundef %57, ptr noundef %0, i32 noundef %53, i32 noundef 8, i32 noundef 0)
  %59 = load i32, ptr %3, align 4
  %60 = add i32 %59, 8
  store i32 %60, ptr %3, align 4
  %61 = load i32, ptr %9, align 4
  %62 = add i32 %61, -8
  store i32 %62, ptr %9, align 4
  %.not72 = icmp eq i32 %62, 0
  br i1 %.not72, label %.thread77, label %.thread75

.thread75:                                        ; preds = %56
  %63 = load i32, ptr @hf_gbcs_message_grouping_header_supplementary_originator_counter, align 4
  %64 = call ptr @proto_tree_add_item(ptr noundef %32, i32 noundef %63, ptr noundef %0, i32 noundef %60, i32 noundef 8, i32 noundef 0)
  %65 = load i32, ptr %3, align 4
  %66 = add i32 %65, 8
  store i32 %66, ptr %3, align 4
  %67 = load i32, ptr %9, align 4
  %68 = add i32 %67, -8
  store i32 %68, ptr %9, align 4
  %.not73 = icmp eq i32 %68, 0
  br i1 %.not73, label %.thread77, label %69

69:                                               ; preds = %.thread75
  %70 = load i32, ptr @hf_gbcs_message_grouping_header_supplementary_remote_party_ka_certificate, align 4
  %71 = call ptr @proto_tree_add_item(ptr noundef %32, i32 noundef %70, ptr noundef %0, i32 noundef %66, i32 noundef %68, i32 noundef 0)
  %72 = load i32, ptr %9, align 4
  %73 = load i32, ptr %3, align 4
  %74 = add i32 %73, %72
  store i32 %74, ptr %3, align 4
  store i32 0, ptr %9, align 4
  br label %.thread77

.thread77:                                        ; preds = %6, %49, %56, %69, %.thread75
  %75 = phi i32 [ %60, %56 ], [ %74, %69 ], [ %66, %.thread75 ], [ %46, %6 ], [ %53, %49 ]
  %76 = load ptr, ptr %8, align 8
  call void @proto_item_set_end(ptr noundef %76, ptr noundef %0, i32 noundef %75)
  %77 = load i32, ptr %3, align 4
  %78 = call i32 @get_ber_length(ptr noundef %0, i32 noundef %77, ptr noundef %4, ptr noundef null)
  store i32 %78, ptr %3, align 4
  %79 = load i32, ptr @hf_gbcs_message_element_length, align 4
  %80 = sub i32 %78, %77
  %81 = load i32, ptr %4, align 4
  %82 = call ptr @proto_tree_add_uint(ptr noundef %13, i32 noundef %79, ptr noundef %0, i32 noundef %77, i32 noundef %80, i32 noundef %81)
  %83 = load ptr, ptr %7, align 8
  %84 = load i32, ptr %3, align 4
  call void @proto_item_set_end(ptr noundef %83, ptr noundef %0, i32 noundef %84)
  call void @llvm.lifetime.end.p0(i64 4, ptr nonnull %10) #6
  call void @llvm.lifetime.end.p0(i64 4, ptr nonnull %9) #6
  call void @llvm.lifetime.end.p0(i64 8, ptr nonnull %8) #6
  call void @llvm.lifetime.end.p0(i64 8, ptr nonnull %7) #6
  ret void
}